target datalayout = "e-m:e-p270:32:32-p271:32:32-p272:64:64-i64:64-i128:128-f80:128-n8:16:32:64-S128"
target triple = "x86_64-pc-linux-gnu"

%struct.cmsCurveSegment = type { float, float, i32, [10 x double], i32, ptr }

; Function Attrs: nounwind uwtable
define hidden ptr @cmsBuildTabulatedToneCurveFloat(ptr noundef %0, i32 noundef %1, ptr noundef %2) #0 {
  %4 = alloca ptr, align 8
  %5 = alloca ptr, align 8
  %6 = alloca i32, align 4
  %7 = alloca ptr, align 8
  %8 = alloca [3 x %struct.cmsCurveSegment], align 16
  store ptr %0, ptr %5, align 8
  store i32 %1, ptr %6, align 4
  store ptr %2, ptr %7, align 8
  %9 = load i32, ptr %6, align 4
  %10 = icmp eq i32 %9, 0
  br i1 %10, label %14, label %11

11:                                               ; preds = %3
  %12 = load ptr, ptr %7, align 8
  %13 = icmp eq ptr %12, null
  br i1 %13, label %14, label %15

14:                                               ; preds = %11, %3
  store ptr null, ptr %4, align 8
  br label %84

15:                                               ; preds = %11
  %16 = getelementptr inbounds [3 x %struct.cmsCurveSegment], ptr %8, i64 0, i64 0
  %17 = getelementptr inbounds %struct.cmsCurveSegment, ptr %16, i32 0, i32 0
  store float 0xC480F0CF00000000, ptr %17, align 16
  %18 = getelementptr inbounds [3 x %struct.cmsCurveSegment], ptr %8, i64 0, i64 0
  %19 = getelementptr inbounds %struct.cmsCurveSegment, ptr %18, i32 0, i32 1
  store float 0.000000e+00, ptr %19, align 4
  %20 = getelementptr inbounds [3 x %struct.cmsCurveSegment], ptr %8, i64 0, i64 0
  %21 = getelementptr inbounds %struct.cmsCurveSegment, ptr %20, i32 0, i32 2
  store i32 6, ptr %21, align 8
  %22 = getelementptr inbounds [3 x %struct.cmsCurveSegment], ptr %8, i64 0, i64 0
  %23 = getelementptr inbounds %struct.cmsCurveSegment, ptr %22, i32 0, i32 3
  %24 = getelementptr inbounds [10 x double], ptr %23, i64 0, i64 0
  store double 1.000000e+00, ptr %24, align 16
  %25 = getelementptr inbounds [3 x %struct.cmsCurveSegment], ptr %8, i64 0, i64 0
  %26 = getelementptr inbounds %struct.cmsCurveSegment, ptr %25, i32 0, i32 3
  %27 = getelementptr inbounds [10 x double], ptr %26, i64 0, i64 1
  store double 0.000000e+00, ptr %27, align 8
  %28 = getelementptr inbounds [3 x %struct.cmsCurveSegment], ptr %8, i64 0, i64 0
  %29 = getelementptr inbounds %struct.cmsCurveSegment, ptr %28, i32 0, i32 3
  %30 = getelementptr inbounds [10 x double], ptr %29, i64 0, i64 2
  store double 0.000000e+00, ptr %30, align 16
  %31 = load ptr, ptr %7, align 8
  %32 = getelementptr inbounds float, ptr %31, i64 0
  %33 = load float, ptr %32, align 4
  %34 = fpext float %33 to double
  %35 = getelementptr inbounds [3 x %struct.cmsCurveSegment], ptr %8, i64 0, i64 0
  %36 = getelementptr inbounds %struct.cmsCurveSegment, ptr %35, i32 0, i32 3
  %37 = getelementptr inbounds [10 x double], ptr %36, i64 0, i64 3
  store double %34, ptr %37, align 8
  %38 = getelementptr inbounds [3 x %struct.cmsCurveSegment], ptr %8, i64 0, i64 0
  %39 = getelementptr inbounds %struct.cmsCurveSegment, ptr %38, i32 0, i32 3
  %40 = getelementptr inbounds [10 x double], ptr %39, i64 0, i64 4
  store double 0.000000e+00, ptr %40, align 16
  %41 = getelementptr inbounds [3 x %struct.cmsCurveSegment], ptr %8, i64 0, i64 1
  %42 = getelementptr inbounds %struct.cmsCurveSegment, ptr %41, i32 0, i32 0
  store float 0.000000e+00, ptr %42, align 16
  %43 = getelementptr inbounds [3 x %struct.cmsCurveSegment], ptr %8, i64 0, i64 1
  %44 = getelementptr inbounds %struct.cmsCurveSegment, ptr %43, i32 0, i32 1
  store float 1.000000e+00, ptr %44, align 4
  %45 = getelementptr inbounds [3 x %struct.cmsCurveSegment], ptr %8, i64 0, i64 1
  %46 = getelementptr inbounds %struct.cmsCurveSegment, ptr %45, i32 0, i32 2
  store i32 0, ptr %46, align 8
  %47 = load i32, ptr %6, align 4
  %48 = getelementptr inbounds [3 x %struct.cmsCurveSegment], ptr %8, i64 0, i64 1
  %49 = getelementptr inbounds %struct.cmsCurveSegment, ptr %48, i32 0, i32 4
  store i32 %47, ptr %49, align 16
  %50 = load ptr, ptr %7, align 8
  %51 = getelementptr inbounds [3 x %struct.cmsCurveSegment], ptr %8, i64 0, i64 1
  %52 = getelementptr inbounds %struct.cmsCurveSegment, ptr %51, i32 0, i32 5
  store ptr %50, ptr %52, align 8
  %53 = getelementptr inbounds [3 x %struct.cmsCurveSegment], ptr %8, i64 0, i64 2
  %54 = getelementptr inbounds %struct.cmsCurveSegment, ptr %53, i32 0, i32 0
  store float 1.000000e+00, ptr %54, align 16
  %55 = getelementptr inbounds [3 x %struct.cmsCurveSegment], ptr %8, i64 0, i64 2
  %56 = getelementptr inbounds %struct.cmsCurveSegment, ptr %55, i32 0, i32 1
  store float 0x4480F0CF00000000, ptr %56, align 4
  %57 = getelementptr inbounds [3 x %struct.cmsCurveSegment], ptr %8, i64 0, i64 2
  %58 = getelementptr inbounds %struct.cmsCurveSegment, ptr %57, i32 0, i32 2
  store i32 6, ptr %58, align 8
  %59 = getelementptr inbounds [3 x %struct.cmsCurveSegment], ptr %8, i64 0, i64 2
  %60 = getelementptr inbounds %struct.cmsCurveSegment, ptr %59, i32 0, i32 3
  %61 = getelementptr inbounds [10 x double], ptr %60, i64 0, i64 0
  store double 1.000000e+00, ptr %61, align 16
  %62 = getelementptr inbounds [3 x %struct.cmsCurveSegment], ptr %8, i64 0, i64 2
  %63 = getelementptr inbounds %struct.cmsCurveSegment, ptr %62, i32 0, i32 3
  %64 = getelementptr inbounds [10 x double], ptr %63, i64 0, i64 1
  store double 0.000000e+00, ptr %64, align 8
  %65 = getelementptr inbounds [3 x %struct.cmsCurveSegment], ptr %8, i64 0, i64 2
  %66 = getelementptr inbounds %struct.cmsCurveSegment, ptr %65, i32 0, i32 3
  %67 = getelementptr inbounds [10 x double], ptr %66, i64 0, i64 2
  store double 0.000000e+00, ptr %67, align 16
  %68 = load ptr, ptr %7, align 8
  %69 = load i32, ptr %6, align 4
  %70 = sub i32 %69, 1
  %71 = zext i32 %70 to i64
  %72 = getelementptr inbounds float, ptr %68, i64 %71
  %73 = load float, ptr %72, align 4
  %74 = fpext float %73 to double
  %75 = getelementptr inbounds [3 x %struct.cmsCurveSegment], ptr %8, i64 0, i64 2
  %76 = getelementptr inbounds %struct.cmsCurveSegment, ptr %75, i32 0, i32 3
  %77 = getelementptr inbounds [10 x double], ptr %76, i64 0, i64 3
  store double %74, ptr %77, align 8
  %78 = getelementptr inbounds [3 x %struct.cmsCurveSegment], ptr %8, i64 0, i64 2
  %79 = getelementptr inbounds %struct.cmsCurveSegment, ptr %78, i32 0, i32 3
  %80 = getelementptr inbounds [10 x double], ptr %79, i64 0, i64 4
  store double 0.000000e+00, ptr %80, align 16
  %81 = load ptr, ptr %5, align 8
  %82 = getelementptr inbounds [3 x %struct.cmsCurveSegment], ptr %8, i64 0, i64 0
  %83 = call ptr @cmsBuildSegmentedToneCurve(ptr noundef %81, i32 noundef 3, ptr noundef %82)
  store ptr %83, ptr %4, align 8
  br label %84

84:                                               ; preds = %15, %14
  %85 = load ptr, ptr %4, align 8
  ret ptr %85
}

; Function Attrs: nounwind uwtable
define hidden ptr @cmsJoinToneCurve(ptr noundef %0, ptr noundef %1, ptr noundef %2, i32 noundef %3) #0 {
  %5 = alloca ptr, align 8
  %6 = alloca ptr, align 8
  %7 = alloca ptr, align 8
  %8 = alloca i32, align 4
  %9 = alloca ptr, align 8
  %10 = alloca ptr, align 8
  %11 = alloca float, align 4
  %12 = alloca float, align 4
  %13 = alloca ptr, align 8
  %14 = alloca i32, align 4
  store ptr %0, ptr %5, align 8
  store ptr %1, ptr %6, align 8
  store ptr %2, ptr %7, align 8
  store i32 %3, ptr %8, align 4
  store ptr null, ptr %9, align 8
  store ptr null, ptr %10, align 8
  store ptr null, ptr %13, align 8
  %15 = load i32, ptr %8, align 4
  %16 = load ptr, ptr %7, align 8
  %17 = call ptr @cmsReverseToneCurveEx(i32 noundef %15, ptr noundef %16)
  store ptr %17, ptr %10, align 8
  %18 = load ptr, ptr %10, align 8
  %19 = icmp eq ptr %18, null
  br i1 %19, label %20, label %21

20:                                               ; preds = %4
  br label %58

21:                                               ; preds = %4
  %22 = load ptr, ptr %5, align 8
  %23 = load i32, ptr %8, align 4
  %24 = call ptr @_cmsCalloc(ptr noundef %22, i32 noundef %23, i32 noundef 4)
  store ptr %24, ptr %13, align 8
  %25 = load ptr, ptr %13, align 8
  %26 = icmp eq ptr %25, null
  br i1 %26, label %27, label %28

27:                                               ; preds = %21
  br label %58

28:                                               ; preds = %21
  store i32 0, ptr %14, align 4
  br label %29

29:                                               ; preds = %50, %28
  %30 = load i32, ptr %14, align 4
  %31 = load i32, ptr %8, align 4
  %32 = icmp ult i32 %30, %31
  br i1 %32, label %33, label %53

33:                                               ; preds = %29
  %34 = load i32, ptr %14, align 4
  %35 = uitofp i32 %34 to float
  %36 = load i32, ptr %8, align 4
  %37 = sub i32 %36, 1
  %38 = uitofp i32 %37 to float
  %39 = fdiv float %35, %38
  store float %39, ptr %11, align 4
  %40 = load ptr, ptr %6, align 8
  %41 = load float, ptr %11, align 4
  %42 = call float @cmsEvalToneCurveFloat(ptr noundef %40, float noundef %41)
  store float %42, ptr %12, align 4
  %43 = load ptr, ptr %10, align 8
  %44 = load float, ptr %12, align 4
  %45 = call float @cmsEvalToneCurveFloat(ptr noundef %43, float noundef %44)
  %46 = load ptr, ptr %13, align 8
  %47 = load i32, ptr %14, align 4
  %48 = zext i32 %47 to i64
  %49 = getelementptr inbounds float, ptr %46, i64 %48
  store float %45, ptr %49, align 4
  br label %50

50:                                               ; preds = %33
  %51 = load i32, ptr %14, align 4
  %52 = add i32 %51, 1
  store i32 %52, ptr %14, align 4
  br label %29, !llvm.loop !16

53:                                               ; preds = %29
  %54 = load ptr, ptr %5, align 8
  %55 = load i32, ptr %8, align 4
  %56 = load ptr, ptr %13, align 8
  %57 = call ptr @cmsBuildTabulatedToneCurveFloat(ptr noundef %54, i32 noundef %55, ptr noundef %56)
  store ptr %57, ptr %9, align 8
  br label %58

58:                                               ; preds = %53, %27, %20
  %59 = load ptr, ptr %13, align 8
  %60 = icmp ne ptr %59, null
  br i1 %60, label %61, label %64

61:                                               ; preds = %58
  %62 = load ptr, ptr %5, align 8
  %63 = load ptr, ptr %13, align 8
  call void @_cmsFree(ptr noundef %62, ptr noundef %63)
  br label %64

64:                                               ; preds = %61, %58
  %65 = load ptr, ptr %10, align 8
  %66 = icmp ne ptr %65, null
  br i1 %66, label %67, label %69

67:                                               ; preds = %64
  %68 = load ptr, ptr %10, align 8
  call void @cmsFreeToneCurve(ptr noundef %68)
  br label %69

69:                                               ; preds = %67, %64
  %70 = load ptr, ptr %9, align 8
  ret ptr %70
}