; Function Attrs: nounwind uwtable
define hidden ptr @cmsJoinToneCurve(ptr noundef %0, ptr nocapture noundef readonly %1, ptr nocapture noundef readonly %2, i32 noundef %3) local_unnamed_addr #0 {
  %5 = alloca [3 x %struct.cmsCurveSegment], align 16
  %6 = tail call ptr @cmsReverseToneCurveEx(i32 noundef %3, ptr noundef %2)
  %7 = icmp eq ptr %6, null
  br i1 %7, label %.thread.thread, label %8

8:                                                ; preds = %4
  %9 = tail call ptr @_cmsCalloc(ptr noundef %0, i32 noundef %3, i32 noundef 4) #13
  %10 = icmp eq ptr %9, null
  br i1 %10, label %.thread.thread39, label %.preheader

.preheader:                                       ; preds = %8
  %.not = icmp eq i32 %3, 0
  br i1 %.not, label %._crit_edge.thread, label %.lr.ph

._crit_edge.thread:                               ; preds = %.preheader
  call void @llvm.lifetime.start.p0(i64 336, ptr nonnull %5)
  br label %.thread

.lr.ph:                                           ; preds = %.preheader
  %11 = add i32 %3, -1
  %12 = uitofp i32 %11 to float
  %wide.trip.count = zext i32 %3 to i64
  br label %13

13:                                               ; preds = %.lr.ph, %13
  %indvars.iv = phi i64 [ 0, %.lr.ph ], [ %indvars.iv.next, %13 ]
  %14 = trunc nuw i64 %indvars.iv to i32
  %15 = uitofp i32 %14 to float
  %16 = fdiv float %15, %12
  %17 = tail call float @cmsEvalToneCurveFloat(ptr noundef %1, float noundef %16)
  %18 = tail call float @cmsEvalToneCurveFloat(ptr noundef nonnull %6, float noundef %17)
  %19 = getelementptr inbounds float, ptr %9, i64 %indvars.iv
  store float %18, ptr %19, align 4
  %indvars.iv.next = add nuw nsw i64 %indvars.iv, 1
  %exitcond.not = icmp eq i64 %indvars.iv.next, %wide.trip.count
  br i1 %exitcond.not, label %._crit_edge, label %13, !llvm.loop !16

._crit_edge:                                      ; preds = %13
  call void @llvm.lifetime.start.p0(i64 336, ptr nonnull %5)
  br i1 %.not, label %.thread, label %20

20:                                               ; preds = %._crit_edge
  store <2 x float> <float 0xC480F0CF00000000, float 0.000000e+00>, ptr %5, align 16
  %21 = getelementptr inbounds i8, ptr %5, i64 8
  store i32 6, ptr %21, align 8
  %22 = getelementptr inbounds i8, ptr %5, i64 16
  store double 1.000000e+00, ptr %22, align 16
  %23 = getelementptr inbounds i8, ptr %5, i64 24
  call void @llvm.memset.p0.i64(ptr noundef nonnull align 8 dereferenceable(16) %23, i8 0, i64 16, i1 false)
  %24 = load float, ptr %9, align 4
  %25 = fpext float %24 to double
  %26 = getelementptr inbounds i8, ptr %5, i64 40
  store double %25, ptr %26, align 8
  %27 = getelementptr inbounds i8, ptr %5, i64 48
  store double 0.000000e+00, ptr %27, align 16
  %28 = getelementptr inbounds i8, ptr %5, i64 112
  store <2 x float> <float 0.000000e+00, float 1.000000e+00>, ptr %28, align 16
  %29 = getelementptr inbounds i8, ptr %5, i64 120
  store i32 0, ptr %29, align 8
  %30 = getelementptr inbounds i8, ptr %5, i64 208
  store i32 %3, ptr %30, align 16
  %31 = getelementptr inbounds i8, ptr %5, i64 216
  store ptr %9, ptr %31, align 8
  %32 = getelementptr inbounds i8, ptr %5, i64 224
  store <2 x float> <float 1.000000e+00, float 0x4480F0CF00000000>, ptr %32, align 16
  %33 = getelementptr inbounds i8, ptr %5, i64 232
  store i32 6, ptr %33, align 8
  %34 = getelementptr inbounds i8, ptr %5, i64 240
  store double 1.000000e+00, ptr %34, align 16
  %35 = getelementptr inbounds i8, ptr %5, i64 248
  %36 = add i32 %3, -1
  %37 = zext i32 %36 to i64
  %38 = getelementptr inbounds float, ptr %9, i64 %37
  call void @llvm.memset.p0.i64(ptr noundef nonnull align 8 dereferenceable(16) %35, i8 0, i64 16, i1 false)
  %39 = load float, ptr %38, align 4
  %40 = fpext float %39 to double
  %41 = getelementptr inbounds i8, ptr %5, i64 264
  store double %40, ptr %41, align 8
  %42 = getelementptr inbounds i8, ptr %5, i64 272
  store double 0.000000e+00, ptr %42, align 16
  %43 = call ptr @cmsBuildSegmentedToneCurve(ptr noundef %0, i32 noundef 3, ptr noundef nonnull %5)
  br label %.thread

.thread:                                          ; preds = %._crit_edge.thread, %20, %._crit_edge
  %.0.i = phi ptr [ %43, %20 ], [ null, %._crit_edge ], [ null, %._crit_edge.thread ]
  call void @llvm.lifetime.end.p0(i64 336, ptr nonnull %5)
  call void @_cmsFree(ptr noundef %0, ptr noundef nonnull %9) #13
  br label %.thread.thread39

.thread.thread39:                                 ; preds = %.thread, %8
  %.0263641 = phi ptr [ %.0.i, %.thread ], [ null, %8 ]
  call void @cmsFreeToneCurve(ptr noundef nonnull %6)
  br label %.thread.thread

.thread.thread:                                   ; preds = %4, %.thread.thread39
  %.0263638 = phi ptr [ %.0263641, %.thread.thread39 ], [ null, %4 ]
  ret ptr %.0263638
}